target datalayout = "e-m:e-p270:32:32-p271:32:32-p272:64:64-i64:64-i128:128-f80:128-n8:16:32:64-S128"
target triple = "x86_64-pc-linux-gnu"

@.str.28 = private unnamed_addr constant [15 x i8] c"value expected\00", align 1

; Function Attrs: nounwind uwtable
define internal i32 @math_min(ptr noundef %0) #0 {
  %2 = alloca ptr, align 8
  %3 = alloca i32, align 4
  %4 = alloca i32, align 4
  %5 = alloca i32, align 4
  store ptr %0, ptr %2, align 8, !tbaa !4
  call void @llvm.lifetime.start.p0(i64 4, ptr %3) #6
  %6 = load ptr, ptr %2, align 8, !tbaa !4
  %7 = call i32 @lua_gettop(ptr noundef %6)
  store i32 %7, ptr %3, align 4, !tbaa !12
  call void @llvm.lifetime.start.p0(i64 4, ptr %4) #6
  store i32 1, ptr %4, align 4, !tbaa !12
  call void @llvm.lifetime.start.p0(i64 4, ptr %5) #6
  %8 = load i32, ptr %3, align 4, !tbaa !12
  %9 = icmp sge i32 %8, 1
  %10 = zext i1 %9 to i32
  %11 = icmp ne i32 %10, 0
  %12 = zext i1 %11 to i32
  %13 = sext i32 %12 to i64
  %14 = call i64 @llvm.expect.i64(i64 %13, i64 1)
  %15 = icmp ne i64 %14, 0
  br i1 %15, label %19, label %16

16:                                               ; preds = %1
  %17 = load ptr, ptr %2, align 8, !tbaa !4
  %18 = call i32 @luaL_argerror(ptr noundef %17, i32 noundef 1, ptr noundef @.str.28)
  br label %19

19:                                               ; preds = %16, %1
  store i32 2, ptr %5, align 4, !tbaa !12
  br label %20

20:                                               ; preds = %33, %19
  %21 = load i32, ptr %5, align 4, !tbaa !12
  %22 = load i32, ptr %3, align 4, !tbaa !12
  %23 = icmp sle i32 %21, %22
  br i1 %23, label %24, label %36

24:                                               ; preds = %20
  %25 = load ptr, ptr %2, align 8, !tbaa !4
  %26 = load i32, ptr %5, align 4, !tbaa !12
  %27 = load i32, ptr %4, align 4, !tbaa !12
  %28 = call i32 @lua_compare(ptr noundef %25, i32 noundef %26, i32 noundef %27, i32 noundef 1)
  %29 = icmp ne i32 %28, 0
  br i1 %29, label %30, label %32

30:                                               ; preds = %24
  %31 = load i32, ptr %5, align 4, !tbaa !12
  store i32 %31, ptr %4, align 4, !tbaa !12
  br label %32

32:                                               ; preds = %30, %24
  br label %33

33:                                               ; preds = %32
  %34 = load i32, ptr %5, align 4, !tbaa !12
  %35 = add nsw i32 %34, 1
  store i32 %35, ptr %5, align 4, !tbaa !12
  br label %20

36:                                               ; preds = %20
  %37 = load ptr, ptr %2, align 8, !tbaa !4
  %38 = load i32, ptr %4, align 4, !tbaa !12
  call void @lua_pushvalue(ptr noundef %37, i32 noundef %38)
  call void @llvm.lifetime.end.p0(i64 4, ptr %5) #6
  call void @llvm.lifetime.end.p0(i64 4, ptr %4) #6
  call void @llvm.lifetime.end.p0(i64 4, ptr %3) #6
  ret i32 1
}